target datalayout = "e-m:e-p270:32:32-p271:32:32-p272:64:64-i64:64-i128:128-f80:128-n8:16:32:64-S128"
target triple = "x86_64-pc-linux-gnu"

; Function Attrs: nounwind uwtable
define i64 @FSE_NCountWriteBound(i32 noundef %0, i32 noundef %1) #0 {
  %3 = alloca i32, align 4
  %4 = alloca i32, align 4
  %5 = alloca i64, align 8
  store i32 %0, ptr %3, align 4, !tbaa !10
  store i32 %1, ptr %4, align 4, !tbaa !10
  call void @llvm.lifetime.start.p0(i64 8, ptr %5) #6
  %6 = load i32, ptr %3, align 4, !tbaa !10
  %7 = add i32 %6, 1
  %8 = load i32, ptr %4, align 4, !tbaa !10
  %9 = mul i32 %7, %8
  %10 = add i32 %9, 4
  %11 = add i32 %10, 2
  %12 = udiv i32 %11, 8
  %13 = add i32 %12, 1
  %14 = add i32 %13, 2
  %15 = zext i32 %14 to i64
  store i64 %15, ptr %5, align 8, !tbaa !13
  %16 = load i32, ptr %3, align 4, !tbaa !10
  %17 = icmp ne i32 %16, 0
  br i1 %17, label %18, label %20

18:                                               ; preds = %2
  %19 = load i64, ptr %5, align 8, !tbaa !13
  br label %21

20:                                               ; preds = %2
  br label %21

21:                                               ; preds = %20, %18
  %22 = phi i64 [ %19, %18 ], [ 512, %20 ]
  call void @llvm.lifetime.end.p0(i64 8, ptr %5) #6
  ret i64 %22
}

; Function Attrs: nounwind uwtable
define i64 @FSE_writeNCount(ptr noundef %0, i64 noundef %1, ptr noundef %2, i32 noundef %3, i32 noundef %4) #0 {
  %6 = alloca i64, align 8
  %7 = alloca ptr, align 8
  %8 = alloca i64, align 8
  %9 = alloca ptr, align 8
  %10 = alloca i32, align 4
  %11 = alloca i32, align 4
  store ptr %0, ptr %7, align 8, !tbaa !12
  store i64 %1, ptr %8, align 8, !tbaa !13
  store ptr %2, ptr %9, align 8, !tbaa !8
  store i32 %3, ptr %10, align 4, !tbaa !10
  store i32 %4, ptr %11, align 4, !tbaa !10
  %12 = load i32, ptr %11, align 4, !tbaa !10
  %13 = icmp ugt i32 %12, 12
  br i1 %13, label %14, label %15

14:                                               ; preds = %5
  store i64 -44, ptr %6, align 8
  br label %39

15:                                               ; preds = %5
  %16 = load i32, ptr %11, align 4, !tbaa !10
  %17 = icmp ult i32 %16, 5
  br i1 %17, label %18, label %19

18:                                               ; preds = %15
  store i64 -1, ptr %6, align 8
  br label %39

19:                                               ; preds = %15
  %20 = load i64, ptr %8, align 8, !tbaa !13
  %21 = load i32, ptr %10, align 4, !tbaa !10
  %22 = load i32, ptr %11, align 4, !tbaa !10
  %23 = call i64 @FSE_NCountWriteBound(i32 noundef %21, i32 noundef %22)
  %24 = icmp ult i64 %20, %23
  br i1 %24, label %25, label %32

25:                                               ; preds = %19
  %26 = load ptr, ptr %7, align 8, !tbaa !12
  %27 = load i64, ptr %8, align 8, !tbaa !13
  %28 = load ptr, ptr %9, align 8, !tbaa !8
  %29 = load i32, ptr %10, align 4, !tbaa !10
  %30 = load i32, ptr %11, align 4, !tbaa !10
  %31 = call i64 @FSE_writeNCount_generic(ptr noundef %26, i64 noundef %27, ptr noundef %28, i32 noundef %29, i32 noundef %30, i32 noundef 0)
  store i64 %31, ptr %6, align 8
  br label %39

32:                                               ; preds = %19
  %33 = load ptr, ptr %7, align 8, !tbaa !12
  %34 = load i64, ptr %8, align 8, !tbaa !13
  %35 = load ptr, ptr %9, align 8, !tbaa !8
  %36 = load i32, ptr %10, align 4, !tbaa !10
  %37 = load i32, ptr %11, align 4, !tbaa !10
  %38 = call i64 @FSE_writeNCount_generic(ptr noundef %33, i64 noundef %34, ptr noundef %35, i32 noundef %36, i32 noundef %37, i32 noundef 1)
  store i64 %38, ptr %6, align 8
  br label %39

39:                                               ; preds = %32, %25, %18, %14
  %40 = load i64, ptr %6, align 8
  ret i64 %40
}